target datalayout = "e-m:e-p270:32:32-p271:32:32-p272:64:64-i64:64-i128:128-f80:128-n8:16:32:64-S128"
target triple = "x86_64-pc-linux-gnu"

%"class.std::__shared_ptr" = type { ptr, %"class.std::__shared_count" }
%"class.std::__shared_count" = type { ptr }
%"class.pro::proxy.85" = type { %"struct.pro::details::meta_ptr.87", [16 x i8] }
%"struct.pro::details::meta_ptr.87" = type { ptr }
%"class.std::_Sp_counted_base" = type { ptr, i32, i32 }
%"struct.(anonymous namespace)::spec::GetWeak<(anonymous namespace)::spec::SharedStringable>::__FT" = type { i8 }
%"class.pro::details::inplace_ptr.177" = type { %"class.std::weak_ptr" }
%"class.std::weak_ptr" = type { %"class.std::__weak_ptr" }
%"class.std::__weak_ptr" = type { ptr, %"class.std::__weak_count" }
%"class.std::__weak_count" = type { ptr }

@__libc_single_threaded = external global i8, align 1

; Function Attrs: mustprogress nounwind uwtable
define linkonce_odr dso_local void @_ZNSt16_Sp_counted_baseILN9__gnu_cxx12_Lock_policyE2EE15_M_weak_add_refEv(ptr noundef nonnull align 8 dereferenceable(16) %0) #7 comdat align 2 personality ptr @__gxx_personality_v0 {
  %2 = alloca ptr, align 8
  %3 = alloca i32, align 4
  %4 = alloca i32, align 4
  %5 = alloca i32, align 4
  %6 = alloca ptr, align 8
  %7 = alloca i32, align 4
  %8 = alloca ptr, align 8
  %9 = alloca i32, align 4
  %10 = alloca ptr, align 8
  store ptr %0, ptr %10, align 8
  %11 = load ptr, ptr %10, align 8
  %12 = getelementptr inbounds %"class.std::_Sp_counted_base", ptr %11, i32 0, i32 2
  store ptr %12, ptr %8, align 8
  store i32 1, ptr %9, align 4
  %13 = load i8, ptr @__libc_single_threaded, align 1
  %14 = icmp ne i8 %13, 0
  br i1 %14, label %15, label %22

15:                                               ; preds = %1
  %16 = load ptr, ptr %8, align 8
  %17 = load i32, ptr %9, align 4
  store ptr %16, ptr %6, align 8
  store i32 %17, ptr %7, align 4
  %18 = load i32, ptr %7, align 4
  %19 = load ptr, ptr %6, align 8
  %20 = load i32, ptr %19, align 4
  %21 = add nsw i32 %20, %18
  store i32 %21, ptr %19, align 4
  br label %29

22:                                               ; preds = %1
  %23 = load ptr, ptr %8, align 8
  %24 = load i32, ptr %9, align 4
  store ptr %23, ptr %2, align 8
  store i32 %24, ptr %3, align 4
  %25 = load ptr, ptr %2, align 8
  %26 = load i32, ptr %3, align 4
  store i32 %26, ptr %4, align 4
  %27 = load i32, ptr %4, align 4
  %28 = atomicrmw volatile add ptr %25, i32 %27 acq_rel, align 4
  store i32 %28, ptr %5, align 4
  br label %29

29:                                               ; preds = %22, %15
  br label %30

30:                                               ; preds = %29
  ret void

31:                                               ; No predecessors!
  %32 = landingpad { ptr, i32 }
          catch ptr null
  %33 = extractvalue { ptr, i32 } %32, 0
  call void @__clang_call_terminate(ptr %33) #18
  unreachable
}

; Function Attrs: mustprogress nounwind uwtable
define linkonce_odr dso_local void @_ZNSt12__weak_countILN9__gnu_cxx12_Lock_policyE2EEC2ERKSt14__shared_countILS1_2EE(ptr noundef nonnull align 8 dereferenceable(8) %0, ptr noundef nonnull align 8 dereferenceable(8) %1) unnamed_addr #7 comdat align 2 {
  %3 = alloca ptr, align 8
  %4 = alloca ptr, align 8
  store ptr %0, ptr %3, align 8
  store ptr %1, ptr %4, align 8
  %5 = load ptr, ptr %3, align 8
  %6 = getelementptr inbounds %"class.std::__weak_count", ptr %5, i32 0, i32 0
  %7 = load ptr, ptr %4, align 8
  %8 = getelementptr inbounds %"class.std::__shared_count", ptr %7, i32 0, i32 0
  %9 = load ptr, ptr %8, align 8
  store ptr %9, ptr %6, align 8
  %10 = getelementptr inbounds %"class.std::__weak_count", ptr %5, i32 0, i32 0
  %11 = load ptr, ptr %10, align 8
  %12 = icmp ne ptr %11, null
  br i1 %12, label %13, label %16

13:                                               ; preds = %2
  %14 = getelementptr inbounds %"class.std::__weak_count", ptr %5, i32 0, i32 0
  %15 = load ptr, ptr %14, align 8
  call void @_ZNSt16_Sp_counted_baseILN9__gnu_cxx12_Lock_policyE2EE15_M_weak_add_refEv(ptr noundef nonnull align 8 dereferenceable(16) %15) #3
  br label %16

16:                                               ; preds = %13, %2
  ret void
}

; Function Attrs: mustprogress nounwind uwtable
define linkonce_odr dso_local void @_ZNSt10__weak_ptrIiLN9__gnu_cxx12_Lock_policyE2EEC2IivEERKSt12__shared_ptrIT_LS1_2EE(ptr noundef nonnull align 8 dereferenceable(16) %0, ptr noundef nonnull align 8 dereferenceable(16) %1) unnamed_addr #7 comdat align 2 {
  %3 = alloca ptr, align 8
  %4 = alloca ptr, align 8
  store ptr %0, ptr %3, align 8
  store ptr %1, ptr %4, align 8
  %5 = load ptr, ptr %3, align 8
  %6 = getelementptr inbounds %"class.std::__weak_ptr", ptr %5, i32 0, i32 0
  %7 = load ptr, ptr %4, align 8
  %8 = getelementptr inbounds %"class.std::__shared_ptr", ptr %7, i32 0, i32 0
  %9 = load ptr, ptr %8, align 8
  store ptr %9, ptr %6, align 8
  %10 = getelementptr inbounds %"class.std::__weak_ptr", ptr %5, i32 0, i32 1
  %11 = load ptr, ptr %4, align 8
  %12 = getelementptr inbounds %"class.std::__shared_ptr", ptr %11, i32 0, i32 1
  call void @_ZNSt12__weak_countILN9__gnu_cxx12_Lock_policyE2EEC2ERKSt14__shared_countILS1_2EE(ptr noundef nonnull align 8 dereferenceable(8) %10, ptr noundef nonnull align 8 dereferenceable(8) %12) #3
  ret void
}

; Function Attrs: mustprogress nounwind uwtable
define linkonce_odr dso_local void @_ZNSt8weak_ptrIiEC2IivEERKSt10shared_ptrIT_E(ptr noundef nonnull align 8 dereferenceable(16) %0, ptr noundef nonnull align 8 dereferenceable(16) %1) unnamed_addr #7 comdat align 2 {
  %3 = alloca ptr, align 8
  %4 = alloca ptr, align 8
  store ptr %0, ptr %3, align 8
  store ptr %1, ptr %4, align 8
  %5 = load ptr, ptr %3, align 8
  %6 = load ptr, ptr %4, align 8
  call void @_ZNSt10__weak_ptrIiLN9__gnu_cxx12_Lock_policyE2EEC2IivEERKSt12__shared_ptrIT_LS1_2EE(ptr noundef nonnull align 8 dereferenceable(16) %5, ptr noundef nonnull align 8 dereferenceable(16) %6) #3
  ret void
}

; Function Attrs: mustprogress nounwind uwtable
define linkonce_odr dso_local void @_ZN3pro7details11inplace_ptrISt8weak_ptrIiEEC2IJRKSt10shared_ptrIiEEEEDpOT_Qsr3stdE18is_constructible_vIT_DpTL0__E(ptr noundef nonnull align 8 dereferenceable(16) %0, ptr noundef nonnull align 8 dereferenceable(16) %1) unnamed_addr #7 comdat align 2 {
  %3 = alloca ptr, align 8
  %4 = alloca ptr, align 8
  store ptr %0, ptr %3, align 8
  store ptr %1, ptr %4, align 8
  %5 = load ptr, ptr %3, align 8
  %6 = getelementptr inbounds %"class.pro::details::inplace_ptr.177", ptr %5, i32 0, i32 0
  %7 = load ptr, ptr %4, align 8
  call void @_ZNSt8weak_ptrIiEC2IivEERKSt10shared_ptrIT_E(ptr noundef nonnull align 8 dereferenceable(16) %6, ptr noundef nonnull align 8 dereferenceable(16) %7) #3
  ret void
}

; Function Attrs: mustprogress nounwind uwtable
define linkonce_odr dso_local noundef ptr @_ZSt7launderIN3pro7details11inplace_ptrISt8weak_ptrIiEEEEPT_S7_(ptr noundef %0) #7 comdat {
  %2 = alloca ptr, align 8
  store ptr %0, ptr %2, align 8
  %3 = load ptr, ptr %2, align 8
  ret ptr %3
}

; Function Attrs: mustprogress nounwind uwtable
define internal void @_ZN3pro7details8meta_ptrINS0_14composite_metaIJNS0_15dispatcher_metaINS0_25copyability_meta_providerILb0EEEEENS3_INS0_28relocatability_meta_providerILb1EEEEENS3_INS0_29destructibility_meta_providerILb1EEEEENS2_IJNS3_INS0_20overload_traits_implILb0ENS_5proxyIN12_GLOBAL__N_14spec16SharedStringableEEEJEE13meta_providerINSG_4LockISH_EEEEEEEEEEEEEC2INS0_11inplace_ptrISt8weak_ptrIiEEEEESt15in_place_type_tIT_E(ptr noundef nonnull align 8 dereferenceable(8) %0) unnamed_addr #7 align 2 {
  %2 = alloca ptr, align 8
  store ptr %0, ptr %2, align 8
  %3 = load ptr, ptr %2, align 8
  %4 = getelementptr inbounds %"struct.pro::details::meta_ptr.87", ptr %3, i32 0, i32 0
  store ptr @_ZN3pro7details8meta_ptrINS0_14composite_metaIJNS0_15dispatcher_metaINS0_25copyability_meta_providerILb0EEEEENS3_INS0_28relocatability_meta_providerILb1EEEEENS3_INS0_29destructibility_meta_providerILb1EEEEENS2_IJNS3_INS0_20overload_traits_implILb0ENS_5proxyIN12_GLOBAL__N_14spec16SharedStringableEEEJEE13meta_providerINSG_4LockISH_EEEEEEEEEEEEE7storageINS0_11inplace_ptrISt8weak_ptrIiEEEEE, ptr %4, align 8
  ret void
}

; Function Attrs: mustprogress nounwind uwtable
define linkonce_odr dso_local noundef ptr @_ZSt12construct_atIN3pro7details11inplace_ptrISt8weak_ptrIiEEEJRKSt10shared_ptrIiEEEDTgsnwcvPvLi0E_T_pispclsr3stdE7declvalIT0_EEEEPSB_DpOSC_(ptr noundef %0, ptr noundef nonnull align 8 dereferenceable(16) %1) #7 comdat {
  %3 = alloca ptr, align 8
  %4 = alloca ptr, align 8
  store ptr %0, ptr %3, align 8
  store ptr %1, ptr %4, align 8
  %5 = load ptr, ptr %3, align 8
  %6 = load ptr, ptr %4, align 8
  call void @_ZN3pro7details11inplace_ptrISt8weak_ptrIiEEC2IJRKSt10shared_ptrIiEEEEDpOT_Qsr3stdE18is_constructible_vIT_DpTL0__E(ptr noundef nonnull align 8 dereferenceable(16) %5, ptr noundef nonnull align 8 dereferenceable(16) %6) #3
  ret ptr %5
}

; Function Attrs: noreturn nounwind uwtable
define linkonce_odr hidden void @__clang_call_terminate(ptr noundef %0) #9 comdat {
  %2 = call ptr @__cxa_begin_catch(ptr %0) #3
  call void @_ZSt9terminatev() #18
  unreachable
}

; Function Attrs: mustprogress nounwind uwtable
define internal noundef nonnull align 8 dereferenceable(16) ptr @_ZN3pro5proxyIN12_GLOBAL__N_14spec4WeakINS2_16SharedStringableEEEE10initializeINS_7details11inplace_ptrISt8weak_ptrIiEEEJRKSt10shared_ptrIiEEEERT_DpOT0_(ptr noundef nonnull align 8 dereferenceable(24) %0, ptr noundef nonnull align 8 dereferenceable(16) %1) #7 align 2 {
  %3 = alloca ptr, align 8
  %4 = alloca ptr, align 8
  %5 = alloca %"struct.pro::details::meta_ptr.87", align 8
  store ptr %0, ptr %3, align 8
  store ptr %1, ptr %4, align 8
  %6 = load ptr, ptr %3, align 8
  %7 = getelementptr inbounds %"class.pro::proxy.85", ptr %6, i32 0, i32 1
  %8 = getelementptr inbounds [16 x i8], ptr %7, i64 0, i64 0
  %9 = load ptr, ptr %4, align 8
  %10 = call noundef ptr @_ZSt12construct_atIN3pro7details11inplace_ptrISt8weak_ptrIiEEEJRKSt10shared_ptrIiEEEDTgsnwcvPvLi0E_T_pispclsr3stdE7declvalIT0_EEEEPSB_DpOSC_(ptr noundef %8, ptr noundef nonnull align 8 dereferenceable(16) %9) #3
  call void @_ZN3pro7details8meta_ptrINS0_14composite_metaIJNS0_15dispatcher_metaINS0_25copyability_meta_providerILb0EEEEENS3_INS0_28relocatability_meta_providerILb1EEEEENS3_INS0_29destructibility_meta_providerILb1EEEEENS2_IJNS3_INS0_20overload_traits_implILb0ENS_5proxyIN12_GLOBAL__N_14spec16SharedStringableEEEJEE13meta_providerINSG_4LockISH_EEEEEEEEEEEEEC2INS0_11inplace_ptrISt8weak_ptrIiEEEEESt15in_place_type_tIT_E(ptr noundef nonnull align 8 dereferenceable(8) %5) #3
  %11 = getelementptr inbounds %"class.pro::proxy.85", ptr %6, i32 0, i32 0
  call void @llvm.memcpy.p0.p0.i64(ptr align 8 %11, ptr align 8 %5, i64 8, i1 false)
  %12 = getelementptr inbounds %"class.pro::proxy.85", ptr %6, i32 0, i32 1
  %13 = getelementptr inbounds [16 x i8], ptr %12, i64 0, i64 0
  %14 = call noundef ptr @_ZSt7launderIN3pro7details11inplace_ptrISt8weak_ptrIiEEEEPT_S7_(ptr noundef %13) #3
  ret ptr %14
}

; Function Attrs: mustprogress nounwind uwtable
define internal void @_ZN3pro7details8meta_ptrINS0_14composite_metaIJNS0_15dispatcher_metaINS0_25copyability_meta_providerILb0EEEEENS3_INS0_28relocatability_meta_providerILb1EEEEENS3_INS0_29destructibility_meta_providerILb1EEEEENS2_IJNS3_INS0_20overload_traits_implILb0ENS_5proxyIN12_GLOBAL__N_14spec16SharedStringableEEEJEE13meta_providerINSG_4LockISH_EEEEEEEEEEEEEC2Ev(ptr noundef nonnull align 8 dereferenceable(8) %0) unnamed_addr #7 align 2 {
  %2 = alloca ptr, align 8
  store ptr %0, ptr %2, align 8
  %3 = load ptr, ptr %2, align 8
  %4 = getelementptr inbounds %"struct.pro::details::meta_ptr.87", ptr %3, i32 0, i32 0
  store ptr null, ptr %4, align 8
  ret void
}

; Function Attrs: mustprogress nounwind uwtable
define internal void @_ZN3pro5proxyIN12_GLOBAL__N_14spec4WeakINS2_16SharedStringableEEEEC2INS_7details11inplace_ptrISt8weak_ptrIiEEEJRKSt10shared_ptrIiEEEESt15in_place_type_tIT_EDpOT0_Q18HasPolyConstructorITL0__DpTL0_0_E(ptr noundef nonnull align 8 dereferenceable(24) %0, ptr noundef nonnull align 8 dereferenceable(16) %1) unnamed_addr #7 align 2 personality ptr @__gxx_personality_v0 {
  %3 = alloca ptr, align 8
  %4 = alloca ptr, align 8
  store ptr %0, ptr %3, align 8
  store ptr %1, ptr %4, align 8
  %5 = load ptr, ptr %3, align 8
  %6 = getelementptr inbounds %"class.pro::proxy.85", ptr %5, i32 0, i32 0
  call void @_ZN3pro7details8meta_ptrINS0_14composite_metaIJNS0_15dispatcher_metaINS0_25copyability_meta_providerILb0EEEEENS3_INS0_28relocatability_meta_providerILb1EEEEENS3_INS0_29destructibility_meta_providerILb1EEEEENS2_IJNS3_INS0_20overload_traits_implILb0ENS_5proxyIN12_GLOBAL__N_14spec16SharedStringableEEEJEE13meta_providerINSG_4LockISH_EEEEEEEEEEEEEC2Ev(ptr noundef nonnull align 8 dereferenceable(8) %6) #3
  %7 = load ptr, ptr %4, align 8
  %8 = invoke noundef nonnull align 8 dereferenceable(16) ptr @_ZN3pro5proxyIN12_GLOBAL__N_14spec4WeakINS2_16SharedStringableEEEE10initializeINS_7details11inplace_ptrISt8weak_ptrIiEEEJRKSt10shared_ptrIiEEEERT_DpOT0_(ptr noundef nonnull align 8 dereferenceable(24) %5, ptr noundef nonnull align 8 dereferenceable(16) %7)
          to label %9 unwind label %10

9:                                                ; preds = %2
  ret void

10:                                               ; preds = %2
  %11 = landingpad { ptr, i32 }
          catch ptr null
  %12 = extractvalue { ptr, i32 } %11, 0
  call void @__clang_call_terminate(ptr %12) #18
  unreachable
}

; Function Attrs: mustprogress nounwind uwtable
define internal void @_ZN3pro7details15make_proxy_implIN12_GLOBAL__N_14spec4WeakINS3_16SharedStringableEEESt8weak_ptrIiEJRKSt10shared_ptrIiEEEENS_5proxyIT_EEDpOT1_(ptr dead_on_unwind noalias writable sret(%"class.pro::proxy.85") align 8 %0, ptr noundef nonnull align 8 dereferenceable(16) %1) #7 {
  %3 = alloca ptr, align 8
  %4 = alloca ptr, align 8
  store ptr %0, ptr %3, align 8
  store ptr %1, ptr %4, align 8
  %5 = load ptr, ptr %4, align 8
  call void @_ZN3pro5proxyIN12_GLOBAL__N_14spec4WeakINS2_16SharedStringableEEEEC2INS_7details11inplace_ptrISt8weak_ptrIiEEEJRKSt10shared_ptrIiEEEESt15in_place_type_tIT_EDpOT0_Q18HasPolyConstructorITL0__DpTL0_0_E(ptr noundef nonnull align 8 dereferenceable(24) %0, ptr noundef nonnull align 8 dereferenceable(16) %5) #3
  ret void
}

; Function Attrs: mustprogress uwtable
define internal void @_ZN3pro10make_proxyITkNS_6facadeEN12_GLOBAL__N_14spec4WeakINS2_16SharedStringableEEESt8weak_ptrIiEJRKSt10shared_ptrIiEEEENS_5proxyIT_EEDpOT1_(ptr dead_on_unwind noalias writable sret(%"class.pro::proxy.85") align 8 %0, ptr noundef nonnull align 8 dereferenceable(16) %1) #4 {
  %3 = alloca ptr, align 8
  %4 = alloca ptr, align 8
  store ptr %0, ptr %3, align 8
  store ptr %1, ptr %4, align 8
  %5 = load ptr, ptr %4, align 8
  call void @_ZN3pro7details15make_proxy_implIN12_GLOBAL__N_14spec4WeakINS3_16SharedStringableEEESt8weak_ptrIiEJRKSt10shared_ptrIiEEEENS_5proxyIT_EEDpOT1_(ptr dead_on_unwind writable sret(%"class.pro::proxy.85") align 8 %0, ptr noundef nonnull align 8 dereferenceable(16) %5)
  ret void
}

; Function Attrs: mustprogress uwtable
define internal void @_ZN12_GLOBAL__N_14spec11GetWeakImplINS0_16SharedStringableEiEEDaRKSt10shared_ptrIT0_E(ptr dead_on_unwind noalias writable sret(%"class.pro::proxy.85") align 8 %0, ptr noundef nonnull align 8 dereferenceable(16) %1) #4 {
  %3 = alloca ptr, align 8
  %4 = alloca ptr, align 8
  store ptr %0, ptr %3, align 8
  store ptr %1, ptr %4, align 8
  %5 = load ptr, ptr %4, align 8
  call void @_ZN3pro10make_proxyITkNS_6facadeEN12_GLOBAL__N_14spec4WeakINS2_16SharedStringableEEESt8weak_ptrIiEJRKSt10shared_ptrIiEEEENS_5proxyIT_EEDpOT1_(ptr dead_on_unwind writable sret(%"class.pro::proxy.85") align 8 %0, ptr noundef nonnull align 8 dereferenceable(16) %5)
  ret void
}

; Function Attrs: mustprogress uwtable
define internal void @_ZN12_GLOBAL__N_14spec7GetWeakINS0_16SharedStringableEE4__FTclIKSt10shared_ptrIiEJEEEDcRT_DpOT0_QrqXcl11GetWeakImplIS9_Efp_spclgssr3stdE7forwardITL0_0_Efp0_EEE(ptr dead_on_unwind noalias writable sret(%"class.pro::proxy.85") align 8 %0, ptr noundef nonnull align 1 dereferenceable(1) %1, ptr noundef nonnull align 8 dereferenceable(16) %2) #4 align 2 {
  %4 = alloca ptr, align 8
  %5 = alloca ptr, align 8
  %6 = alloca ptr, align 8
  store ptr %0, ptr %4, align 8
  store ptr %1, ptr %5, align 8
  store ptr %2, ptr %6, align 8
  %7 = load ptr, ptr %6, align 8
  call void @_ZN12_GLOBAL__N_14spec11GetWeakImplINS0_16SharedStringableEiEEDaRKSt10shared_ptrIT0_E(ptr dead_on_unwind writable sret(%"class.pro::proxy.85") align 8 %0, ptr noundef nonnull align 8 dereferenceable(16) %7)
  ret void
}

; Function Attrs: mustprogress uwtable
define internal void @_ZN3pro7details15invoke_dispatchIN12_GLOBAL__N_14spec7GetWeakINS3_16SharedStringableEE4__FTENS_5proxyINS3_4WeakIS5_EEEEJRKSt10shared_ptrIiEEEET0_DpOT1_(ptr dead_on_unwind noalias writable sret(%"class.pro::proxy.85") align 8 %0, ptr noundef nonnull align 8 dereferenceable(16) %1) #4 {
  %3 = alloca ptr, align 8
  %4 = alloca ptr, align 8
  %5 = alloca %"struct.(anonymous namespace)::spec::GetWeak<(anonymous namespace)::spec::SharedStringable>::__FT", align 1
  store ptr %0, ptr %3, align 8
  store ptr %1, ptr %4, align 8
  %6 = load ptr, ptr %4, align 8
  call void @_ZN12_GLOBAL__N_14spec7GetWeakINS0_16SharedStringableEE4__FTclIKSt10shared_ptrIiEJEEEDcRT_DpOT0_QrqXcl11GetWeakImplIS9_Efp_spclgssr3stdE7forwardITL0_0_Efp0_EEE(ptr dead_on_unwind writable sret(%"class.pro::proxy.85") align 8 %0, ptr noundef nonnull align 1 dereferenceable(1) %5, ptr noundef nonnull align 8 dereferenceable(16) %6)
  ret void
}

; Function Attrs: mustprogress nounwind uwtable
define linkonce_odr dso_local noundef ptr @_ZSt7launderIKSt10shared_ptrIiEEPT_S4_(ptr noundef %0) #7 comdat {
  %2 = alloca ptr, align 8
  store ptr %0, ptr %2, align 8
  %3 = load ptr, ptr %2, align 8
  ret ptr %3
}

; Function Attrs: mustprogress uwtable
define internal void @_ZN3pro7details25invocation_dispatcher_ptrISt10shared_ptrIiEN12_GLOBAL__N_14spec7GetWeakINS5_16SharedStringableEE4__FTENS_5proxyINS5_4WeakIS7_EEEEJEEET1_PKSt4byteDpT2_(ptr dead_on_unwind noalias writable sret(%"class.pro::proxy.85") align 8 %0, ptr noundef %1) #4 {
  %3 = alloca ptr, align 8
  %4 = alloca ptr, align 8
  store ptr %0, ptr %3, align 8
  store ptr %1, ptr %4, align 8
  %5 = load ptr, ptr %4, align 8
  %6 = call noundef ptr @_ZSt7launderIKSt10shared_ptrIiEEPT_S4_(ptr noundef %5) #3
  call void @_ZN3pro7details15invoke_dispatchIN12_GLOBAL__N_14spec7GetWeakINS3_16SharedStringableEE4__FTENS_5proxyINS3_4WeakIS5_EEEEJRKSt10shared_ptrIiEEEET0_DpOT1_(ptr dead_on_unwind writable sret(%"class.pro::proxy.85") align 8 %0, ptr noundef nonnull align 8 dereferenceable(16) %6)
  ret void
}