; Function Attrs: mustprogress nofree norecurse nounwind willreturn uwtable
define internal void @_ZN3pro7details25invocation_dispatcher_ptrISt10shared_ptrIiEN12_GLOBAL__N_14spec7GetWeakINS5_16SharedStringableEE4__FTENS_5proxyINS5_4WeakIS7_EEEEJEEET1_PKSt4byteDpT2_(ptr dead_on_unwind noalias nocapture writable writeonly sret(%"class.pro::proxy.85") align 8 %0, ptr nocapture noundef readonly %1) #18 personality ptr @__gxx_personality_v0 {
  %.val = load ptr, ptr %1, align 8
  %3 = getelementptr i8, ptr %1, i64 8
  %.val1 = load ptr, ptr %3, align 8
  tail call void @llvm.experimental.noalias.scope.decl(metadata !421)
  tail call void @llvm.experimental.noalias.scope.decl(metadata !424)
  tail call void @llvm.experimental.noalias.scope.decl(metadata !427)
  tail call void @llvm.experimental.noalias.scope.decl(metadata !430)
  tail call void @llvm.experimental.noalias.scope.decl(metadata !433)
  store ptr null, ptr %0, align 8, !alias.scope !436
  %4 = getelementptr inbounds i8, ptr %0, i64 8
  store ptr %.val, ptr %4, align 8, !alias.scope !436
  %5 = getelementptr inbounds i8, ptr %0, i64 16
  store ptr %.val1, ptr %5, align 8, !alias.scope !436
  %.not.i.i.i.i.i.i.i.i.i.i.i.i = icmp eq ptr %.val1, null
  br i1 %.not.i.i.i.i.i.i.i.i.i.i.i.i, label %_ZN3pro7details15invoke_dispatchIN12_GLOBAL__N_14spec7GetWeakINS3_16SharedStringableEE4__FTENS_5proxyINS3_4WeakIS5_EEEEJRKSt10shared_ptrIiEEEET0_DpOT1_.exit, label %6

6:                                                ; preds = %2
  %7 = getelementptr inbounds i8, ptr %.val1, i64 12
  %8 = load i8, ptr @__libc_single_threaded, align 1, !noalias !436
  %.not.i.i.i.i.i.i.i.i.i.i.i.i.i = icmp eq i8 %8, 0
  br i1 %.not.i.i.i.i.i.i.i.i.i.i.i.i.i, label %12, label %9

9:                                                ; preds = %6
  %10 = load i32, ptr %7, align 4, !noalias !436
  %11 = add nsw i32 %10, 1
  store i32 %11, ptr %7, align 4, !noalias !436
  br label %_ZN3pro7details15invoke_dispatchIN12_GLOBAL__N_14spec7GetWeakINS3_16SharedStringableEE4__FTENS_5proxyINS3_4WeakIS5_EEEEJRKSt10shared_ptrIiEEEET0_DpOT1_.exit

12:                                               ; preds = %6
  %13 = atomicrmw volatile add ptr %7, i32 1 acq_rel, align 4, !noalias !436
  br label %_ZN3pro7details15invoke_dispatchIN12_GLOBAL__N_14spec7GetWeakINS3_16SharedStringableEE4__FTENS_5proxyINS3_4WeakIS5_EEEEJRKSt10shared_ptrIiEEEET0_DpOT1_.exit

_ZN3pro7details15invoke_dispatchIN12_GLOBAL__N_14spec7GetWeakINS3_16SharedStringableEE4__FTENS_5proxyINS3_4WeakIS5_EEEEJRKSt10shared_ptrIiEEEET0_DpOT1_.exit: ; preds = %2, %9, %12
  store i64 ptrtoint (ptr @_ZN3pro7details8meta_ptrINS0_14composite_metaIJNS0_15dispatcher_metaINS0_25copyability_meta_providerILb0EEEEENS3_INS0_28relocatability_meta_providerILb1EEEEENS3_INS0_29destructibility_meta_providerILb1EEEEENS2_IJNS3_INS0_20overload_traits_implILb0ENS_5proxyIN12_GLOBAL__N_14spec16SharedStringableEEEJEE13meta_providerINSG_4LockISH_EEEEEEEEEEEEE7storageINS0_11inplace_ptrISt8weak_ptrIiEEEEE to i64), ptr %0, align 8, !alias.scope !436
  ret void
}